target datalayout = "e-m:e-p270:32:32-p271:32:32-p272:64:64-i64:64-i128:128-f80:128-n8:16:32:64-S128"
target triple = "x86_64-pc-linux-gnu"

%struct.allocation_info = type { i32, i64, i64, ptr, i64, ptr, i64, i64 }
%struct.RBasic = type { i64, i64 }
%struct.RString = type { %struct.RBasic, i64, %union.anon.13 }
%union.anon.13 = type { %struct.anon.14 }
%struct.anon.14 = type { ptr, %union.anon.15 }
%union.anon.15 = type { i64 }
%struct.anon.16 = type { [1 x i8] }

@.str.14 = private unnamed_addr constant [18 x i8] c"-- %p (%s F: %p, \00", align 1
@.str.15 = private unnamed_addr constant [5 x i8] c"live\00", align 1
@.str.16 = private unnamed_addr constant [5 x i8] c"dead\00", align 1
@.str.17 = private unnamed_addr constant [6 x i8] c"C: %s\00", align 1
@.str.18 = private unnamed_addr constant [6 x i8] c"C: %p\00", align 1
@.str.19 = private unnamed_addr constant [8 x i8] c"@%s:%lu\00", align 1
@.str.20 = private unnamed_addr constant [1 x i8] zeroinitializer, align 1
@.str.21 = private unnamed_addr constant [6 x i8] c" (%s)\00", align 1
@.str.22 = private unnamed_addr constant [3 x i8] c")\0A\00", align 1

; Function Attrs: inlinehint nounwind sspstrong willreturn memory(read) uwtable
define internal i64 @RB_FL_TEST_RAW(i64 noundef %0, i64 noundef %1) #7 {
  %3 = alloca i64, align 8
  %4 = alloca i64, align 8
  store i64 %0, ptr %3, align 8, !tbaa !6
  store i64 %1, ptr %4, align 8, !tbaa !6
  %5 = load i64, ptr %3, align 8, !tbaa !6
  %6 = inttoptr i64 %5 to ptr
  %7 = getelementptr inbounds nuw %struct.RBasic, ptr %6, i32 0, i32 0
  %8 = load i64, ptr %7, align 8, !tbaa !37
  %9 = load i64, ptr %4, align 8, !tbaa !6
  %10 = and i64 %8, %9
  ret i64 %10
}

; Function Attrs: inlinehint nounwind sspstrong willreturn memory(read) uwtable
define internal i64 @RSTRING_LEN(i64 noundef %0) #7 {
  %2 = alloca i64, align 8
  store i64 %0, ptr %2, align 8, !tbaa !6
  %3 = load i64, ptr %2, align 8, !tbaa !6
  %4 = inttoptr i64 %3 to ptr
  %5 = getelementptr inbounds nuw %struct.RString, ptr %4, i32 0, i32 1
  %6 = load i64, ptr %5, align 8, !tbaa !47
  ret i64 %6
}

; Function Attrs: inlinehint nounwind sspstrong willreturn memory(read) uwtable
define internal zeroext i1 @RB_FL_ANY_RAW(i64 noundef %0, i64 noundef %1) #7 {
  %3 = alloca i64, align 8
  %4 = alloca i64, align 8
  store i64 %0, ptr %3, align 8, !tbaa !6
  store i64 %1, ptr %4, align 8, !tbaa !6
  %5 = load i64, ptr %3, align 8, !tbaa !6
  %6 = load i64, ptr %4, align 8, !tbaa !6
  %7 = call i64 @RB_FL_TEST_RAW(i64 noundef %5, i64 noundef %6) #19
  %8 = icmp ne i64 %7, 0
  ret i1 %8
}

; Function Attrs: inlinehint nounwind sspstrong willreturn memory(read, argmem: readwrite) uwtable
define internal void @rbimpl_rstring_getmem(ptr dead_on_unwind noalias writable sret(%struct.RString) align 8 %0, i64 noundef %1) #12 {
  %3 = alloca i64, align 8
  store i64 %1, ptr %3, align 8, !tbaa !6
  %4 = load i64, ptr %3, align 8, !tbaa !6
  %5 = call zeroext i1 @RB_FL_ANY_RAW(i64 noundef %4, i64 noundef 8192) #19
  br i1 %5, label %6, label %9

6:                                                ; preds = %2
  %7 = load i64, ptr %3, align 8, !tbaa !6
  %8 = inttoptr i64 %7 to ptr
  call void @llvm.memcpy.p0.p0.i64(ptr align 8 %0, ptr align 8 %8, i64 40, i1 false), !tbaa.struct !50
  br label %20

9:                                                ; preds = %2
  %10 = load i64, ptr %3, align 8, !tbaa !6
  %11 = call i64 @RSTRING_LEN(i64 noundef %10) #19
  %12 = getelementptr inbounds nuw %struct.RString, ptr %0, i32 0, i32 1
  store i64 %11, ptr %12, align 8, !tbaa !47
  %13 = load i64, ptr %3, align 8, !tbaa !6
  %14 = inttoptr i64 %13 to ptr
  %15 = getelementptr inbounds nuw %struct.RString, ptr %14, i32 0, i32 2
  %16 = getelementptr inbounds nuw %struct.anon.16, ptr %15, i32 0, i32 0
  %17 = getelementptr inbounds [1 x i8], ptr %16, i64 0, i64 0
  %18 = getelementptr inbounds nuw %struct.RString, ptr %0, i32 0, i32 2
  %19 = getelementptr inbounds nuw %struct.anon.14, ptr %18, i32 0, i32 0
  store ptr %17, ptr %19, align 8, !tbaa !46
  br label %20

20:                                               ; preds = %9, %6
  ret void
}

; Function Attrs: inlinehint nounwind sspstrong uwtable
define internal ptr @RSTRING_PTR(i64 noundef %0) #3 {
  %2 = alloca i64, align 8
  %3 = alloca ptr, align 8
  %4 = alloca %struct.RString, align 8
  store i64 %0, ptr %2, align 8, !tbaa !6
  call void @llvm.lifetime.start.p0(i64 8, ptr %3) #17
  %5 = load i64, ptr %2, align 8, !tbaa !6
  call void @rbimpl_rstring_getmem(ptr dead_on_unwind writable sret(%struct.RString) align 8 %4, i64 noundef %5) #22
  %6 = getelementptr inbounds nuw %struct.RString, ptr %4, i32 0, i32 2
  %7 = getelementptr inbounds nuw %struct.anon.14, ptr %6, i32 0, i32 0
  %8 = load ptr, ptr %7, align 8, !tbaa !46
  store ptr %8, ptr %3, align 8, !tbaa !35
  %9 = load ptr, ptr %3, align 8, !tbaa !35
  call void @llvm.lifetime.end.p0(i64 8, ptr %3) #17
  ret ptr %9
}

; Function Attrs: inlinehint nounwind sspstrong willreturn memory(none) uwtable
define internal zeroext i1 @RB_NIL_P(i64 noundef %0) #6 {
  %2 = alloca i64, align 8
  store i64 %0, ptr %2, align 8, !tbaa !6
  %3 = load i64, ptr %2, align 8, !tbaa !6
  %4 = icmp eq i64 %3, 4
  ret i1 %4
}

; Function Attrs: nounwind sspstrong uwtable
define internal i32 @object_allocations_reporter_i(i64 noundef %0, i64 noundef %1, i64 noundef %2) #0 {
  %4 = alloca i64, align 8
  %5 = alloca i64, align 8
  %6 = alloca i64, align 8
  %7 = alloca ptr, align 8
  %8 = alloca i64, align 8
  %9 = alloca ptr, align 8
  %10 = alloca i64, align 8
  store i64 %0, ptr %4, align 8, !tbaa !6
  store i64 %1, ptr %5, align 8, !tbaa !6
  store i64 %2, ptr %6, align 8, !tbaa !6
  call void @llvm.lifetime.start.p0(i64 8, ptr %7) #17
  %11 = load i64, ptr %6, align 8, !tbaa !6
  %12 = inttoptr i64 %11 to ptr
  store ptr %12, ptr %7, align 8, !tbaa !53
  call void @llvm.lifetime.start.p0(i64 8, ptr %8) #17
  %13 = load i64, ptr %4, align 8, !tbaa !6
  store i64 %13, ptr %8, align 8, !tbaa !6
  call void @llvm.lifetime.start.p0(i64 8, ptr %9) #17
  %14 = load i64, ptr %5, align 8, !tbaa !6
  %15 = inttoptr i64 %14 to ptr
  store ptr %15, ptr %9, align 8, !tbaa !22
  %16 = load ptr, ptr %7, align 8, !tbaa !53
  %17 = load i64, ptr %8, align 8, !tbaa !6
  %18 = inttoptr i64 %17 to ptr
  %19 = load ptr, ptr %9, align 8, !tbaa !22
  %20 = getelementptr inbounds nuw %struct.allocation_info, ptr %19, i32 0, i32 0
  %21 = load i32, ptr %20, align 8, !tbaa !36
  %22 = icmp ne i32 %21, 0
  %23 = select i1 %22, ptr @.str.15, ptr @.str.16
  %24 = load ptr, ptr %9, align 8, !tbaa !22
  %25 = getelementptr inbounds nuw %struct.allocation_info, ptr %24, i32 0, i32 1
  %26 = load i64, ptr %25, align 8, !tbaa !39
  %27 = inttoptr i64 %26 to ptr
  %28 = call i32 (ptr, i32, ptr, ...) @__fprintf_chk(ptr noundef %16, i32 noundef 1, ptr noundef @.str.14, ptr noundef %18, ptr noundef %23, ptr noundef %27)
  %29 = load ptr, ptr %9, align 8, !tbaa !22
  %30 = getelementptr inbounds nuw %struct.allocation_info, ptr %29, i32 0, i32 5
  %31 = load ptr, ptr %30, align 8, !tbaa !28
  %32 = icmp ne ptr %31, null
  br i1 %32, label %33, label %39

33:                                               ; preds = %3
  %34 = load ptr, ptr %7, align 8, !tbaa !53
  %35 = load ptr, ptr %9, align 8, !tbaa !22
  %36 = getelementptr inbounds nuw %struct.allocation_info, ptr %35, i32 0, i32 5
  %37 = load ptr, ptr %36, align 8, !tbaa !28
  %38 = call i32 (ptr, i32, ptr, ...) @__fprintf_chk(ptr noundef %34, i32 noundef 1, ptr noundef @.str.17, ptr noundef %37)
  br label %46

39:                                               ; preds = %3
  %40 = load ptr, ptr %7, align 8, !tbaa !53
  %41 = load ptr, ptr %9, align 8, !tbaa !22
  %42 = getelementptr inbounds nuw %struct.allocation_info, ptr %41, i32 0, i32 2
  %43 = load i64, ptr %42, align 8, !tbaa !40
  %44 = inttoptr i64 %43 to ptr
  %45 = call i32 (ptr, i32, ptr, ...) @__fprintf_chk(ptr noundef %40, i32 noundef 1, ptr noundef @.str.18, ptr noundef %44)
  br label %46

46:                                               ; preds = %39, %33
  %47 = load ptr, ptr %7, align 8, !tbaa !53
  %48 = load ptr, ptr %9, align 8, !tbaa !22
  %49 = getelementptr inbounds nuw %struct.allocation_info, ptr %48, i32 0, i32 3
  %50 = load ptr, ptr %49, align 8, !tbaa !24
  %51 = icmp ne ptr %50, null
  br i1 %51, label %52, label %56

52:                                               ; preds = %46
  %53 = load ptr, ptr %9, align 8, !tbaa !22
  %54 = getelementptr inbounds nuw %struct.allocation_info, ptr %53, i32 0, i32 3
  %55 = load ptr, ptr %54, align 8, !tbaa !24
  br label %57

56:                                               ; preds = %46
  br label %57

57:                                               ; preds = %56, %52
  %58 = phi ptr [ %55, %52 ], [ @.str.20, %56 ]
  %59 = load ptr, ptr %9, align 8, !tbaa !22
  %60 = getelementptr inbounds nuw %struct.allocation_info, ptr %59, i32 0, i32 4
  %61 = load i64, ptr %60, align 8, !tbaa !27
  %62 = call i32 (ptr, i32, ptr, ...) @__fprintf_chk(ptr noundef %47, i32 noundef 1, ptr noundef @.str.19, ptr noundef %58, i64 noundef %61)
  %63 = load ptr, ptr %9, align 8, !tbaa !22
  %64 = getelementptr inbounds nuw %struct.allocation_info, ptr %63, i32 0, i32 6
  %65 = load i64, ptr %64, align 8, !tbaa !29
  %66 = call zeroext i1 @RB_NIL_P(i64 noundef %65) #18
  br i1 %66, label %76, label %67

67:                                               ; preds = %57
  call void @llvm.lifetime.start.p0(i64 8, ptr %10) #17
  %68 = load ptr, ptr %9, align 8, !tbaa !22
  %69 = getelementptr inbounds nuw %struct.allocation_info, ptr %68, i32 0, i32 6
  %70 = load i64, ptr %69, align 8, !tbaa !29
  %71 = call i64 @rb_sym2str(i64 noundef %70)
  store i64 %71, ptr %10, align 8, !tbaa !6
  %72 = load ptr, ptr %7, align 8, !tbaa !53
  %73 = load i64, ptr %10, align 8, !tbaa !6
  %74 = call ptr @RSTRING_PTR(i64 noundef %73)
  %75 = call i32 (ptr, i32, ptr, ...) @__fprintf_chk(ptr noundef %72, i32 noundef 1, ptr noundef @.str.21, ptr noundef %74)
  call void @llvm.lifetime.end.p0(i64 8, ptr %10) #17
  br label %76

76:                                               ; preds = %67, %57
  %77 = load ptr, ptr %7, align 8, !tbaa !53
  %78 = call i32 (ptr, i32, ptr, ...) @__fprintf_chk(ptr noundef %77, i32 noundef 1, ptr noundef @.str.22)
  call void @llvm.lifetime.end.p0(i64 8, ptr %9) #17
  call void @llvm.lifetime.end.p0(i64 8, ptr %8) #17
  call void @llvm.lifetime.end.p0(i64 8, ptr %7) #17
  ret i32 0
}