; Function Attrs: nounwind sspstrong uwtable
define internal noundef i32 @object_allocations_reporter_i(i64 noundef %0, i64 noundef %1, i64 noundef %2) #0 {
  %4 = inttoptr i64 %2 to ptr
  %5 = inttoptr i64 %1 to ptr
  %6 = inttoptr i64 %0 to ptr
  %7 = load i32, ptr %5, align 8, !tbaa !43
  %.not = icmp eq i32 %7, 0
  %8 = select i1 %.not, ptr @.str.16, ptr @.str.15
  %9 = getelementptr inbounds nuw i8, ptr %5, i64 8
  %10 = load i64, ptr %9, align 8, !tbaa !44
  %11 = inttoptr i64 %10 to ptr
  %12 = tail call i32 (ptr, i32, ptr, ...) @__fprintf_chk(ptr noundef %4, i32 noundef 1, ptr noundef nonnull @.str.14, ptr noundef %6, ptr noundef nonnull %8, ptr noundef %11) #10
  %13 = getelementptr inbounds nuw i8, ptr %5, i64 40
  %14 = load ptr, ptr %13, align 8, !tbaa !31
  %.not21 = icmp eq ptr %14, null
  br i1 %.not21, label %17, label %15

15:                                               ; preds = %3
  %16 = tail call i32 (ptr, i32, ptr, ...) @__fprintf_chk(ptr noundef %4, i32 noundef 1, ptr noundef nonnull @.str.17, ptr noundef nonnull %14) #10
  br label %22

17:                                               ; preds = %3
  %18 = getelementptr inbounds nuw i8, ptr %5, i64 16
  %19 = load i64, ptr %18, align 8, !tbaa !46
  %20 = inttoptr i64 %19 to ptr
  %21 = tail call i32 (ptr, i32, ptr, ...) @__fprintf_chk(ptr noundef %4, i32 noundef 1, ptr noundef nonnull @.str.18, ptr noundef %20) #10
  br label %22

22:                                               ; preds = %17, %15
  %23 = getelementptr inbounds nuw i8, ptr %5, i64 24
  %24 = load ptr, ptr %23, align 8, !tbaa !27
  %.not22 = icmp eq ptr %24, null
  %spec.select = select i1 %.not22, ptr @.str.20, ptr %24
  %25 = getelementptr inbounds nuw i8, ptr %5, i64 32
  %26 = load i64, ptr %25, align 8, !tbaa !30
  %27 = tail call i32 (ptr, i32, ptr, ...) @__fprintf_chk(ptr noundef %4, i32 noundef 1, ptr noundef nonnull @.str.19, ptr noundef nonnull %spec.select, i64 noundef %26) #10
  %28 = getelementptr inbounds nuw i8, ptr %5, i64 48
  %29 = load i64, ptr %28, align 8, !tbaa !32
  %30 = icmp eq i64 %29, 4
  br i1 %30, label %39, label %31

31:                                               ; preds = %22
  %32 = tail call i64 @rb_sym2str(i64 noundef %29) #10
  %33 = inttoptr i64 %32 to ptr
  %34 = load i64, ptr %33, align 8, !tbaa !34, !noalias !48
  %35 = and i64 %34, 8192
  %.not.i.i = icmp eq i64 %35, 0
  %36 = getelementptr inbounds nuw i8, ptr %33, i64 24
  br i1 %.not.i.i, label %RSTRING_PTR.exit, label %37

37:                                               ; preds = %31
  %.sroa.2.0.copyload.i = load ptr, ptr %36, align 8
  br label %RSTRING_PTR.exit

RSTRING_PTR.exit:                                 ; preds = %31, %37
  %.sroa.2.0.i = phi ptr [ %.sroa.2.0.copyload.i, %37 ], [ %36, %31 ]
  %38 = tail call i32 (ptr, i32, ptr, ...) @__fprintf_chk(ptr noundef %4, i32 noundef 1, ptr noundef nonnull @.str.21, ptr noundef %.sroa.2.0.i) #10
  br label %39

39:                                               ; preds = %RSTRING_PTR.exit, %22
  %40 = tail call i32 (ptr, i32, ptr, ...) @__fprintf_chk(ptr noundef %4, i32 noundef 1, ptr noundef nonnull @.str.22) #10
  ret i32 0
}